; ModuleID = '57/738.c'
source_filename = "57/738.c"
target datalayout = "e-m:e-p270:32:32-p271:32:32-p272:64:64-i64:64-f80:128-n8:16:32:64-S128"
target triple = "x86_64-pc-linux-gnu"

@.str = private unnamed_addr constant [3 x i8] c"%d\00", align 1
@.str.1 = private unnamed_addr constant [3 x i8] c"%s\00", align 1
@.str.2 = private unnamed_addr constant [4 x i8] c"%s\0A\00", align 1

; Function Attrs: noinline nounwind uwtable
define dso_local i32 @main() #0 {
  %1 = alloca i32, align 4
  %2 = alloca i32, align 4
  %3 = alloca i32, align 4
  %4 = alloca i8*, align 8
  %5 = alloca i64, align 8
  %6 = alloca i64, align 8
  store i32 0, i32* %1, align 4
  %7 = call i32 (i8*, ...) @__isoc99_scanf(i8* getelementptr inbounds ([3 x i8], [3 x i8]* @.str, i64 0, i64 0), i32* %2)
  %8 = load i32, i32* %2, align 4
  %9 = zext i32 %8 to i64
  %10 = call i8* @llvm.stacksave()
  store i8* %10, i8** %4, align 8
  %11 = alloca [33 x i8], i64 %9, align 16
  store i64 %9, i64* %5, align 8
  %12 = load i32, i32* %2, align 4
  %13 = zext i32 %12 to i64
  %14 = alloca i32, i64 %13, align 16
  store i64 %13, i64* %6, align 8
  store i32 0, i32* %3, align 4
  br label %15

15:                                               ; preds = %33, %0
  %16 = load i32, i32* %3, align 4
  %17 = load i32, i32* %2, align 4
  %18 = icmp slt i32 %16, %17
  br i1 %18, label %19, label %36

19:                                               ; preds = %15
  %20 = load i32, i32* %3, align 4
  %21 = sext i32 %20 to i64
  %22 = getelementptr inbounds [33 x i8], [33 x i8]* %11, i64 %21
  %23 = call i32 (i8*, ...) @__isoc99_scanf(i8* getelementptr inbounds ([3 x i8], [3 x i8]* @.str.1, i64 0, i64 0), [33 x i8]* %22)
  %24 = load i32, i32* %3, align 4
  %25 = sext i32 %24 to i64
  %26 = getelementptr inbounds [33 x i8], [33 x i8]* %11, i64 %25
  %27 = getelementptr inbounds [33 x i8], [33 x i8]* %26, i64 0, i64 0
  %28 = call i64 @strlen(i8* %27) #4
  %29 = trunc i64 %28 to i32
  %30 = load i32, i32* %3, align 4
  %31 = sext i32 %30 to i64
  %32 = getelementptr inbounds i32, i32* %14, i64 %31
  store i32 %29, i32* %32, align 4
  br label %33

33:                                               ; preds = %19
  %34 = load i32, i32* %3, align 4
  %35 = add nsw i32 %34, 1
  store i32 %35, i32* %3, align 4
  br label %15

36:                                               ; preds = %15
  store i32 0, i32* %3, align 4
  br label %37

37:                                               ; preds = %215, %36
  %38 = load i32, i32* %3, align 4
  %39 = load i32, i32* %2, align 4
  %40 = icmp slt i32 %38, %39
  br i1 %40, label %41, label %218

41:                                               ; preds = %37
  %42 = load i32, i32* %3, align 4
  %43 = sext i32 %42 to i64
  %44 = getelementptr inbounds [33 x i8], [33 x i8]* %11, i64 %43
  %45 = load i32, i32* %3, align 4
  %46 = sext i32 %45 to i64
  %47 = getelementptr inbounds i32, i32* %14, i64 %46
  %48 = load i32, i32* %47, align 4
  %49 = sub nsw i32 %48, 2
  %50 = sext i32 %49 to i64
  %51 = getelementptr inbounds [33 x i8], [33 x i8]* %44, i64 0, i64 %50
  %52 = load i8, i8* %51, align 1
  %53 = sext i8 %52 to i32
  %54 = icmp eq i32 %53, 108
  br i1 %54, label %55, label %90

55:                                               ; preds = %41
  %56 = load i32, i32* %3, align 4
  %57 = sext i32 %56 to i64
  %58 = getelementptr inbounds [33 x i8], [33 x i8]* %11, i64 %57
  %59 = load i32, i32* %3, align 4
  %60 = sext i32 %59 to i64
  %61 = getelementptr inbounds i32, i32* %14, i64 %60
  %62 = load i32, i32* %61, align 4
  %63 = sub nsw i32 %62, 1
  %64 = sext i32 %63 to i64
  %65 = getelementptr inbounds [33 x i8], [33 x i8]* %58, i64 0, i64 %64
  %66 = load i8, i8* %65, align 1
  %67 = sext i8 %66 to i32
  %68 = icmp eq i32 %67, 121
  br i1 %68, label %69, label %90

69:                                               ; preds = %55
  %70 = load i32, i32* %3, align 4
  %71 = sext i32 %70 to i64
  %72 = getelementptr inbounds [33 x i8], [33 x i8]* %11, i64 %71
  %73 = load i32, i32* %3, align 4
  %74 = sext i32 %73 to i64
  %75 = getelementptr inbounds i32, i32* %14, i64 %74
  %76 = load i32, i32* %75, align 4
  %77 = sub nsw i32 %76, 2
  %78 = sext i32 %77 to i64
  %79 = getelementptr inbounds [33 x i8], [33 x i8]* %72, i64 0, i64 %78
  store i8 0, i8* %79, align 1
  %80 = load i32, i32* %3, align 4
  %81 = sext i32 %80 to i64
  %82 = getelementptr inbounds [33 x i8], [33 x i8]* %11, i64 %81
  %83 = load i32, i32* %3, align 4
  %84 = sext i32 %83 to i64
  %85 = getelementptr inbounds i32, i32* %14, i64 %84
  %86 = load i32, i32* %85, align 4
  %87 = sub nsw i32 %86, 1
  %88 = sext i32 %87 to i64
  %89 = getelementptr inbounds [33 x i8], [33 x i8]* %82, i64 0, i64 %88
  store i8 0, i8* %89, align 1
  br label %214

90:                                               ; preds = %55, %41
  %91 = load i32, i32* %3, align 4
  %92 = sext i32 %91 to i64
  %93 = getelementptr inbounds [33 x i8], [33 x i8]* %11, i64 %92
  %94 = load i32, i32* %3, align 4
  %95 = sext i32 %94 to i64
  %96 = getelementptr inbounds i32, i32* %14, i64 %95
  %97 = load i32, i32* %96, align 4
  %98 = sub nsw i32 %97, 2
  %99 = sext i32 %98 to i64
  %100 = getelementptr inbounds [33 x i8], [33 x i8]* %93, i64 0, i64 %99
  %101 = load i8, i8* %100, align 1
  %102 = sext i8 %101 to i32
  %103 = icmp eq i32 %102, 101
  br i1 %103, label %104, label %139

104:                                              ; preds = %90
  %105 = load i32, i32* %3, align 4
  %106 = sext i32 %105 to i64
  %107 = getelementptr inbounds [33 x i8], [33 x i8]* %11, i64 %106
  %108 = load i32, i32* %3, align 4
  %109 = sext i32 %108 to i64
  %110 = getelementptr inbounds i32, i32* %14, i64 %109
  %111 = load i32, i32* %110, align 4
  %112 = sub nsw i32 %111, 1
  %113 = sext i32 %112 to i64
  %114 = getelementptr inbounds [33 x i8], [33 x i8]* %107, i64 0, i64 %113
  %115 = load i8, i8* %114, align 1
  %116 = sext i8 %115 to i32
  %117 = icmp eq i32 %116, 114
  br i1 %117, label %118, label %139

118:                                              ; preds = %104
  %119 = load i32, i32* %3, align 4
  %120 = sext i32 %119 to i64
  %121 = getelementptr inbounds [33 x i8], [33 x i8]* %11, i64 %120
  %122 = load i32, i32* %3, align 4
  %123 = sext i32 %122 to i64
  %124 = getelementptr inbounds i32, i32* %14, i64 %123
  %125 = load i32, i32* %124, align 4
  %126 = sub nsw i32 %125, 2
  %127 = sext i32 %126 to i64
  %128 = getelementptr inbounds [33 x i8], [33 x i8]* %121, i64 0, i64 %127
  store i8 0, i8* %128, align 1
  %129 = load i32, i32* %3, align 4
  %130 = sext i32 %129 to i64
  %131 = getelementptr inbounds [33 x i8], [33 x i8]* %11, i64 %130
  %132 = load i32, i32* %3, align 4
  %133 = sext i32 %132 to i64
  %134 = getelementptr inbounds i32, i32* %14, i64 %133
  %135 = load i32, i32* %134, align 4
  %136 = sub nsw i32 %135, 1
  %137 = sext i32 %136 to i64
  %138 = getelementptr inbounds [33 x i8], [33 x i8]* %131, i64 0, i64 %137
  store i8 0, i8* %138, align 1
  br label %213

139:                                              ; preds = %104, %90
  %140 = load i32, i32* %3, align 4
  %141 = sext i32 %140 to i64
  %142 = getelementptr inbounds [33 x i8], [33 x i8]* %11, i64 %141
  %143 = load i32, i32* %3, align 4
  %144 = sext i32 %143 to i64
  %145 = getelementptr inbounds i32, i32* %14, i64 %144
  %146 = load i32, i32* %145, align 4
  %147 = sub nsw i32 %146, 3
  %148 = sext i32 %147 to i64
  %149 = getelementptr inbounds [33 x i8], [33 x i8]* %142, i64 0, i64 %148
  %150 = load i8, i8* %149, align 1
  %151 = sext i8 %150 to i32
  %152 = icmp eq i32 %151, 105
  br i1 %152, label %153, label %212

153:                                              ; preds = %139
  %154 = load i32, i32* %3, align 4
  %155 = sext i32 %154 to i64
  %156 = getelementptr inbounds [33 x i8], [33 x i8]* %11, i64 %155
  %157 = load i32, i32* %3, align 4
  %158 = sext i32 %157 to i64
  %159 = getelementptr inbounds i32, i32* %14, i64 %158
  %160 = load i32, i32* %159, align 4
  %161 = sub nsw i32 %160, 2
  %162 = sext i32 %161 to i64
  %163 = getelementptr inbounds [33 x i8], [33 x i8]* %156, i64 0, i64 %162
  %164 = load i8, i8* %163, align 1
  %165 = sext i8 %164 to i32
  %166 = icmp eq i32 %165, 110
  br i1 %166, label %167, label %212

167:                                              ; preds = %153
  %168 = load i32, i32* %3, align 4
  %169 = sext i32 %168 to i64
  %170 = getelementptr inbounds [33 x i8], [33 x i8]* %11, i64 %169
  %171 = load i32, i32* %3, align 4
  %172 = sext i32 %171 to i64
  %173 = getelementptr inbounds i32, i32* %14, i64 %172
  %174 = load i32, i32* %173, align 4
  %175 = sub nsw i32 %174, 1
  %176 = sext i32 %175 to i64
  %177 = getelementptr inbounds [33 x i8], [33 x i8]* %170, i64 0, i64 %176
  %178 = load i8, i8* %177, align 1
  %179 = sext i8 %178 to i32
  %180 = icmp eq i32 %179, 103
  br i1 %180, label %181, label %212

181:                                              ; preds = %167
  %182 = load i32, i32* %3, align 4
  %183 = sext i32 %182 to i64
  %184 = getelementptr inbounds [33 x i8], [33 x i8]* %11, i64 %183
  %185 = load i32, i32* %3, align 4
  %186 = sext i32 %185 to i64
  %187 = getelementptr inbounds i32, i32* %14, i64 %186
  %188 = load i32, i32* %187, align 4
  %189 = sub nsw i32 %188, 3
  %190 = sext i32 %189 to i64
  %191 = getelementptr inbounds [33 x i8], [33 x i8]* %184, i64 0, i64 %190
  store i8 0, i8* %191, align 1
  %192 = load i32, i32* %3, align 4
  %193 = sext i32 %192 to i64
  %194 = getelementptr inbounds [33 x i8], [33 x i8]* %11, i64 %193
  %195 = load i32, i32* %3, align 4
  %196 = sext i32 %195 to i64
  %197 = getelementptr inbounds i32, i32* %14, i64 %196
  %198 = load i32, i32* %197, align 4
  %199 = sub nsw i32 %198, 2
  %200 = sext i32 %199 to i64
  %201 = getelementptr inbounds [33 x i8], [33 x i8]* %194, i64 0, i64 %200
  store i8 0, i8* %201, align 1
  %202 = load i32, i32* %3, align 4
  %203 = sext i32 %202 to i64
  %204 = getelementptr inbounds [33 x i8], [33 x i8]* %11, i64 %203
  %205 = load i32, i32* %3, align 4
  %206 = sext i32 %205 to i64
  %207 = getelementptr inbounds i32, i32* %14, i64 %206
  %208 = load i32, i32* %207, align 4
  %209 = sub nsw i32 %208, 1
  %210 = sext i32 %209 to i64
  %211 = getelementptr inbounds [33 x i8], [33 x i8]* %204, i64 0, i64 %210
  store i8 0, i8* %211, align 1
  br label %212

212:                                              ; preds = %181, %167, %153, %139
  br label %213

213:                                              ; preds = %212, %118
  br label %214

214:                                              ; preds = %213, %69
  br label %215

215:                                              ; preds = %214
  %216 = load i32, i32* %3, align 4
  %217 = add nsw i32 %216, 1
  store i32 %217, i32* %3, align 4
  br label %37

218:                                              ; preds = %37
  store i32 0, i32* %3, align 4
  br label %219

219:                                              ; preds = %229, %218
  %220 = load i32, i32* %3, align 4
  %221 = load i32, i32* %2, align 4
  %222 = icmp slt i32 %220, %221
  br i1 %222, label %223, label %232

223:                                              ; preds = %219
  %224 = load i32, i32* %3, align 4
  %225 = sext i32 %224 to i64
  %226 = getelementptr inbounds [33 x i8], [33 x i8]* %11, i64 %225
  %227 = getelementptr inbounds [33 x i8], [33 x i8]* %226, i64 0, i64 0
  %228 = call i32 (i8*, ...) @printf(i8* getelementptr inbounds ([4 x i8], [4 x i8]* @.str.2, i64 0, i64 0), i8* %227)
  br label %229

229:                                              ; preds = %223
  %230 = load i32, i32* %3, align 4
  %231 = add nsw i32 %230, 1
  store i32 %231, i32* %3, align 4
  br label %219

232:                                              ; preds = %219
  %233 = load i8*, i8** %4, align 8
  call void @llvm.stackrestore(i8* %233)
  %234 = load i32, i32* %1, align 4
  ret i32 %234
}

declare dso_local i32 @__isoc99_scanf(i8*, ...) #1

; Function Attrs: nounwind
declare i8* @llvm.stacksave() #2

; Function Attrs: nounwind readonly
declare dso_local i64 @strlen(i8*) #3

declare dso_local i32 @printf(i8*, ...) #1

; Function Attrs: nounwind
declare void @llvm.stackrestore(i8*) #2


!llvm.module.flags = !{!0}
!llvm.ident = !{!1}

!0 = !{i32 1, !"wchar_size", i32 4}
!1 = !{!"clang version 10.0.0-4ubuntu1 "}
